(dp0
I1
(F0.11
tp1
sI2
(F0.21
tp2
sI3
(F0.31
tp3
sI4
(F0.41
tp4
sI5
(F0.51
tp5
sI6
(F0.61
tp6
sI7
(F0.71
tp7
sI8
(F0.81
tp8
sI9
(F0.91
tp9
sI10
(F1.01
tp10
sI11
(F1.11
tp11
sI12
(F1.21
tp12
sI13
(F1.31
tp13
sI14
(F1.41
tp14
sI15
(F1.51
tp15
sI16
(F1.61
tp16
sI17
(F1.71
tp17
sI18
(F1.81
tp18
sI19
(F1.91
tp19
sI20
(F2.01
tp20
sI21
(F2.11
tp21
sI22
(F2.21
tp22
sI23
(F2.31
tp23
sI24
(F2.41
tp24
sI25
(F2.51
tp25
sI26
(F2.61
tp26
sI27
(F2.71
tp27
sI28
(F2.81
tp28
sI29
(F2.91
tp29
sI30
(F3.01
tp30
sI31
(F3.11
tp31
sI32
(F3.21
tp32
sI33
(F3.31
tp33
sI34
(F3.41
tp34
sI35
(F3.51
tp35
sI36
(F3.61
tp36
sI37
(F3.71
tp37
sI38
(F3.81
tp38
sI39
(F3.91
tp39
sI40
(F4.01
tp40
sI41
(F4.11
tp41
sI42
(F4.21
tp42
sI43
(F4.31
tp43
sI44
(F4.41
tp44
sI45
(F4.51
tp45
sI46
(F4.61
tp46
sI47
(F4.71
tp47
sI48
(F4.81
tp48
sI49
(F4.91
tp49
sI50
(F5.01
tp50
sI51
(F5.11
tp51
sI52
(F5.21
tp52
sI53
(F5.31
tp53
sI54
(F5.41
tp54
sI55
(F5.51
tp55
sI56
(F5.61
tp56
sI57
(F5.71
tp57
sI58
(F5.81
tp58
sI59
(F5.91
tp59
sI60
(F6.01
tp60
sI61
(F6.11
tp61
sI62
(F6.21
tp62
sI63
(F6.31
tp63
sI64
(F6.41
tp64
sI65
(F6.51
tp65
sI66
(F6.61
tp66
sI67
(F6.71
tp67
sI68
(F6.81
tp68
sI69
(F6.91
tp69
sI70
(F7.01
tp70
sI71
(F7.11
tp71
sI72
(F7.21
tp72
sI73
(F7.31
tp73
sI74
(F7.41
tp74
sI75
(F7.51
tp75
sI76
(F7.61
tp76
sI77
(F7.71
tp77
sI78
(F7.81
tp78
sI79
(F7.91
tp79
sI80
(F8.01
tp80
sI81
(F8.11
tp81
sI82
(F8.21
tp82
sI83
(F8.31
tp83
sI84
(F8.41
tp84
sI85
(F8.51
tp85
sI86
(F8.61
tp86
sI87
(F8.71
tp87
sI88
(F8.81
tp88
sI89
(F8.91
tp89
sI90
(F9.01
tp90
sI91
(F9.11
tp91
sI92
(F9.21
tp92
sI93
(F9.31
tp93
sI94
(F9.41
tp94
sI95
(F9.51
tp95
sI96
(F9.61
tp96
sI97
(F9.71
tp97
sI98
(F9.81
tp98
sI99
(F9.91
tp99
sI100
(F10.01
tp100
s.